target datalayout = "e-m:e-p270:32:32-p271:32:32-p272:64:64-i64:64-i128:128-f80:128-n8:16:32:64-S128"
target triple = "x86_64-pc-linux-gnu"

%struct.VLC = type { i32, ptr, i32, i32 }
%struct.RVMapDesc = type { i8, i8, [256 x i8], [256 x i8] }
%struct.IVIHuffDesc = type { i32, [16 x i8] }
%struct.IVIHuffTab = type { i32, ptr, %struct.IVIHuffDesc, %struct.VLC }
%struct.GetBitContext = type { ptr, ptr, i32, i32, i32 }
%struct.IVIPicConfig = type { i16, i16, i16, i16, i16, i16, i8, i8 }
%struct.AVCodecContext = type { ptr, i32, i32, ptr, i32, i32, ptr, ptr, ptr, i64, i32, i32, ptr, i32, %struct.AVRational, %struct.AVRational, %struct.AVRational, i32, i32, i32, i32, i32, %struct.AVRational, i32, i32, i32, i32, i32, i32, i32, i32, i32, i32, i32, ptr, ptr, i32, float, float, float, float, float, float, float, float, float, i32, i32, i32, i32, i32, i32, i32, i32, i32, i32, i32, i32, ptr, ptr, ptr, i32, i32, i32, i32, i32, i32, i32, i32, i32, i32, %struct.AVChannelLayout, i32, i32, i32, i32, i32, i32, i32, i32, ptr, i32, i32, i32, float, float, i32, i32, i32, i32, i32, ptr, i64, i64, float, float, i32, i32, ptr, ptr, i32, i32, i32, i32, i32, ptr, ptr, ptr, ptr, i32, i32, [8 x i64], i32, i32, i32, i32, i32, i32, i32, ptr, ptr, i32, i32, i32, i32, i32, i32, i32, i32, i32, i32, ptr, ptr, i32, i32, ptr, ptr, ptr, ptr, i32, i32, i64, i32, i32, i64, ptr, i64, ptr, i32, ptr, i32 }
%struct.AVRational = type { i32, i32 }
%struct.AVChannelLayout = type { i32, i32, %union.anon, ptr }
%union.anon = type { i64 }
%struct.IVIPlaneDesc = type { i16, i16, i8, ptr }
%struct.IVI45DecContext = type { %struct.GetBitContext, [9 x %struct.RVMapDesc], i32, i32, i32, i32, i32, ptr, i32, i32, i32, i8, i16, %struct.IVIPicConfig, [3 x %struct.IVIPlaneDesc], i32, i32, i32, i32, i32, %struct.IVIHuffTab, %struct.IVIHuffTab, i8, i8, i8, i8, i8, i16, i8, i32, i32, i8, i8, i8, i8, i8, ptr, ptr, ptr, ptr, ptr, i32, [4 x i32], i32, ptr, i32 }

; Function Attrs: cold nounwind optsize uwtable
define i32 @ff_ivi_decode_close(ptr noundef %0) #0 {
  %2 = alloca ptr, align 8
  %3 = alloca ptr, align 8
  store ptr %0, ptr %2, align 8, !tbaa !19
  call void @llvm.lifetime.start.p0(i64 8, ptr %3) #12
  %4 = load ptr, ptr %2, align 8, !tbaa !19
  %5 = getelementptr inbounds nuw %struct.AVCodecContext, ptr %4, i32 0, i32 6
  %6 = load ptr, ptr %5, align 8, !tbaa !121
  store ptr %6, ptr %3, align 8, !tbaa !122
  %7 = load ptr, ptr %3, align 8, !tbaa !122
  %8 = getelementptr inbounds nuw %struct.IVI45DecContext, ptr %7, i32 0, i32 14
  %9 = getelementptr inbounds [3 x %struct.IVIPlaneDesc], ptr %8, i64 0, i64 0
  call void @ivi_free_buffers(ptr noundef %9) #15
  %10 = load ptr, ptr %3, align 8, !tbaa !122
  %11 = getelementptr inbounds nuw %struct.IVI45DecContext, ptr %10, i32 0, i32 20
  %12 = getelementptr inbounds nuw %struct.IVIHuffTab, ptr %11, i32 0, i32 3
  %13 = getelementptr inbounds nuw %struct.VLC, ptr %12, i32 0, i32 1
  %14 = load ptr, ptr %13, align 8, !tbaa !175
  %15 = icmp ne ptr %14, null
  br i1 %15, label %16, label %20

16:                                               ; preds = %1
  %17 = load ptr, ptr %3, align 8, !tbaa !122
  %18 = getelementptr inbounds nuw %struct.IVI45DecContext, ptr %17, i32 0, i32 20
  %19 = getelementptr inbounds nuw %struct.IVIHuffTab, ptr %18, i32 0, i32 3
  call void @ff_vlc_free(ptr noundef %19)
  br label %20

20:                                               ; preds = %16, %1
  %21 = load ptr, ptr %3, align 8, !tbaa !122
  %22 = getelementptr inbounds nuw %struct.IVI45DecContext, ptr %21, i32 0, i32 21
  %23 = getelementptr inbounds nuw %struct.IVIHuffTab, ptr %22, i32 0, i32 3
  %24 = getelementptr inbounds nuw %struct.VLC, ptr %23, i32 0, i32 1
  %25 = load ptr, ptr %24, align 8, !tbaa !176
  %26 = icmp ne ptr %25, null
  br i1 %26, label %27, label %31

27:                                               ; preds = %20
  %28 = load ptr, ptr %3, align 8, !tbaa !122
  %29 = getelementptr inbounds nuw %struct.IVI45DecContext, ptr %28, i32 0, i32 21
  %30 = getelementptr inbounds nuw %struct.IVIHuffTab, ptr %29, i32 0, i32 3
  call void @ff_vlc_free(ptr noundef %30)
  br label %31

31:                                               ; preds = %27, %20
  %32 = load ptr, ptr %3, align 8, !tbaa !122
  %33 = getelementptr inbounds nuw %struct.IVI45DecContext, ptr %32, i32 0, i32 44
  call void @av_frame_free(ptr noundef %33)
  call void @llvm.lifetime.end.p0(i64 8, ptr %3) #12
  ret i32 0
}