; Function Attrs: cold nounwind optsize uwtable
define noundef i32 @ff_ivi_decode_close(ptr noundef readonly captures(none) %0) local_unnamed_addr #0 {
  %2 = getelementptr inbounds nuw i8, ptr %0, i64 32
  %3 = load ptr, ptr %2, align 8, !tbaa !101
  %4 = getelementptr inbounds nuw i8, ptr %3, i64 4720
  tail call fastcc void @ivi_free_buffers(ptr noundef nonnull %4) #11
  %5 = getelementptr inbounds nuw i8, ptr %3, i64 4840
  %6 = load ptr, ptr %5, align 8, !tbaa !187
  %.not = icmp eq ptr %6, null
  br i1 %.not, label %9, label %7

7:                                                ; preds = %1
  %8 = getelementptr inbounds nuw i8, ptr %3, i64 4832
  tail call void @ff_vlc_free(ptr noundef nonnull %8) #10
  br label %9

9:                                                ; preds = %7, %1
  %10 = getelementptr inbounds nuw i8, ptr %3, i64 4904
  %11 = load ptr, ptr %10, align 8, !tbaa !188
  %.not7 = icmp eq ptr %11, null
  br i1 %.not7, label %14, label %12

12:                                               ; preds = %9
  %13 = getelementptr inbounds nuw i8, ptr %3, i64 4896
  tail call void @ff_vlc_free(ptr noundef nonnull %13) #10
  br label %14

14:                                               ; preds = %12, %9
  %15 = getelementptr inbounds nuw i8, ptr %3, i64 5016
  tail call void @av_frame_free(ptr noundef nonnull %15) #10
  ret i32 0
}